target datalayout = "e-m:e-p270:32:32-p271:32:32-p272:64:64-i64:64-i128:128-f80:128-n8:16:32:64-S128"
target triple = "x86_64-unknown-linux-gnu"

%"struct.node::performance::PerformanceState::SerializeInfo" = type { i64, i64, i64 }

@.str = private unnamed_addr constant [3 x i8] c"{\0A\00", align 1
@.str.3 = private unnamed_addr constant [3 x i8] c"  \00", align 1
@.str.4 = private unnamed_addr constant [12 x i8] c",  // root\0A\00", align 1
@.str.5 = private unnamed_addr constant [18 x i8] c",  // milestones\0A\00", align 1
@.str.6 = private unnamed_addr constant [17 x i8] c",  // observers\0A\00", align 1
@.str.7 = private unnamed_addr constant [2 x i8] c"}\00", align 1

; Function Attrs: mustprogress nounwind uwtable
define dso_local noundef nonnull align 8 dereferenceable(8) ptr @_ZN4node11performancelsERSoRKNS0_16PerformanceState13SerializeInfoE(ptr noundef nonnull align 8 dereferenceable(8) %o, ptr noundef nonnull align 8 dereferenceable(24) %i) #4 {
entry:
  %o.addr = alloca ptr, align 8
  %i.addr = alloca ptr, align 8
  store ptr %o, ptr %o.addr, align 8
  store ptr %i, ptr %i.addr, align 8
  %0 = load ptr, ptr %o.addr, align 8
  %call = call noundef nonnull align 8 dereferenceable(8) ptr @_ZStlsISt11char_traitsIcEERSt13basic_ostreamIcT_ES5_PKc(ptr noundef nonnull align 8 dereferenceable(8) %0, ptr noundef @.str)
  %call1 = call noundef nonnull align 8 dereferenceable(8) ptr @_ZStlsISt11char_traitsIcEERSt13basic_ostreamIcT_ES5_PKc(ptr noundef nonnull align 8 dereferenceable(8) %call, ptr noundef @.str.3)
  %1 = load ptr, ptr %i.addr, align 8
  %root = getelementptr inbounds %"struct.node::performance::PerformanceState::SerializeInfo", ptr %1, i32 0, i32 0
  %2 = load i64, ptr %root, align 8
  %call2 = call noundef nonnull align 8 dereferenceable(8) ptr @_ZNSolsEm(ptr noundef nonnull align 8 dereferenceable(8) %call1, i64 noundef %2)
  %call3 = call noundef nonnull align 8 dereferenceable(8) ptr @_ZStlsISt11char_traitsIcEERSt13basic_ostreamIcT_ES5_PKc(ptr noundef nonnull align 8 dereferenceable(8) %call2, ptr noundef @.str.4)
  %call4 = call noundef nonnull align 8 dereferenceable(8) ptr @_ZStlsISt11char_traitsIcEERSt13basic_ostreamIcT_ES5_PKc(ptr noundef nonnull align 8 dereferenceable(8) %call3, ptr noundef @.str.3)
  %3 = load ptr, ptr %i.addr, align 8
  %milestones = getelementptr inbounds %"struct.node::performance::PerformanceState::SerializeInfo", ptr %3, i32 0, i32 1
  %4 = load i64, ptr %milestones, align 8
  %call5 = call noundef nonnull align 8 dereferenceable(8) ptr @_ZNSolsEm(ptr noundef nonnull align 8 dereferenceable(8) %call4, i64 noundef %4)
  %call6 = call noundef nonnull align 8 dereferenceable(8) ptr @_ZStlsISt11char_traitsIcEERSt13basic_ostreamIcT_ES5_PKc(ptr noundef nonnull align 8 dereferenceable(8) %call5, ptr noundef @.str.5)
  %call7 = call noundef nonnull align 8 dereferenceable(8) ptr @_ZStlsISt11char_traitsIcEERSt13basic_ostreamIcT_ES5_PKc(ptr noundef nonnull align 8 dereferenceable(8) %call6, ptr noundef @.str.3)
  %5 = load ptr, ptr %i.addr, align 8
  %observers = getelementptr inbounds %"struct.node::performance::PerformanceState::SerializeInfo", ptr %5, i32 0, i32 2
  %6 = load i64, ptr %observers, align 8
  %call8 = call noundef nonnull align 8 dereferenceable(8) ptr @_ZNSolsEm(ptr noundef nonnull align 8 dereferenceable(8) %call7, i64 noundef %6)
  %call9 = call noundef nonnull align 8 dereferenceable(8) ptr @_ZStlsISt11char_traitsIcEERSt13basic_ostreamIcT_ES5_PKc(ptr noundef nonnull align 8 dereferenceable(8) %call8, ptr noundef @.str.6)
  %call10 = call noundef nonnull align 8 dereferenceable(8) ptr @_ZStlsISt11char_traitsIcEERSt13basic_ostreamIcT_ES5_PKc(ptr noundef nonnull align 8 dereferenceable(8) %call9, ptr noundef @.str.7)
  %7 = load ptr, ptr %o.addr, align 8
  ret ptr %7
}